target datalayout = "e-m:e-p270:32:32-p271:32:32-p272:64:64-i64:64-i128:128-f80:128-n8:16:32:64-S128"
target triple = "x86_64-pc-linux-gnu"

%struct.FT_ListRec_ = type { ptr, ptr }
%struct.FT_CharMapRec_ = type { ptr, i32, i16, i16 }
%struct.T1_FaceRec_ = type { %struct.FT_FaceRec_, %struct.T1_FontRec_, ptr, ptr, ptr, [2 x %struct.FT_CharMapRec_], [2 x ptr], ptr, i32, i32, i32, ptr, ptr }
%struct.FT_FaceRec_ = type { i64, i64, i64, i64, i64, ptr, ptr, i32, ptr, i32, ptr, %struct.FT_Generic_, %struct.FT_BBox_, i16, i16, i16, i16, i16, i16, i16, i16, ptr, ptr, ptr, ptr, ptr, ptr, %struct.FT_ListRec_, %struct.FT_Generic_, ptr, ptr }
%struct.FT_BBox_ = type { i64, i64, i64, i64 }
%struct.FT_Generic_ = type { ptr, ptr }
%struct.T1_FontRec_ = type { %struct.PS_FontInfoRec_, %struct.PS_FontExtraRec_, %struct.PS_PrivateRec_, ptr, i32, %struct.T1_EncodingRecRec_, ptr, ptr, ptr, i32, ptr, ptr, ptr, i32, ptr, ptr, ptr, i8, i8, %struct.FT_Matrix_, %struct.FT_Vector_, %struct.FT_BBox_, i64, i64 }
%struct.PS_FontInfoRec_ = type { ptr, ptr, ptr, ptr, ptr, i64, i8, i16, i16 }
%struct.PS_FontExtraRec_ = type { i16 }
%struct.PS_PrivateRec_ = type { i32, i32, i8, i8, i8, i8, [14 x i16], [10 x i16], [14 x i16], [10 x i16], i64, i32, i32, [1 x i16], [1 x i16], i8, i8, i8, i8, [13 x i16], [13 x i16], i64, i64, i64, [2 x i16] }
%struct.T1_EncodingRecRec_ = type { i32, i32, i32, ptr, ptr }
%struct.FT_Matrix_ = type { i64, i64, i64, i64 }
%struct.FT_Vector_ = type { i64, i64 }
%struct.PSAux_ServiceRec_ = type { ptr, ptr, ptr, ptr, ptr, ptr, ptr, ptr, ptr, ptr, ptr }
%struct.FT_GlyphSlotRec_ = type { ptr, ptr, ptr, i32, %struct.FT_Generic_, %struct.FT_Glyph_Metrics_, i64, i64, %struct.FT_Vector_, i32, %struct.FT_Bitmap_, i32, i32, %struct.FT_Outline_, i32, ptr, ptr, i64, i64, i64, ptr, ptr }
%struct.FT_Glyph_Metrics_ = type { i64, i64, i64, i64, i64, i64, i64, i64 }
%struct.FT_Bitmap_ = type { i32, i32, i32, ptr, i16, i8, i8, ptr }
%struct.FT_Outline_ = type { i16, i16, ptr, ptr, ptr, i32 }
%struct.T1_DecoderRec_ = type { %struct.T1_BuilderRec_, [256 x i64], ptr, [17 x %struct.T1_Decoder_ZoneRec_], ptr, ptr, i32, ptr, i32, i32, ptr, ptr, ptr, %struct.FT_Matrix_, %struct.FT_Vector_, i32, i32, [7 x %struct.FT_Vector_], ptr, i32, ptr, %struct.T1_Decoder_FuncsRec_, ptr, i32, i8, %struct.FT_Generic_ }
%struct.T1_BuilderRec_ = type { ptr, ptr, ptr, ptr, ptr, ptr, i64, i64, %struct.FT_Vector_, %struct.FT_Vector_, %struct.FT_BBox_, i32, i8, i8, i8, ptr, ptr, %struct.T1_Builder_FuncsRec_ }
%struct.T1_Builder_FuncsRec_ = type { ptr, ptr, ptr, ptr, ptr, ptr, ptr, ptr }
%struct.T1_Decoder_ZoneRec_ = type { ptr, ptr, ptr }
%struct.T1_Decoder_FuncsRec_ = type { ptr, ptr, ptr, ptr }
%struct.FT_Data_ = type { ptr, i32 }
%struct.FT_Face_InternalRec_ = type { %struct.FT_Matrix_, %struct.FT_Vector_, i32, %struct.FT_ServiceCacheRec_, ptr, i8, i32, i32 }
%struct.FT_ServiceCacheRec_ = type { ptr, ptr, ptr, ptr, ptr, ptr }
%struct.T1_GlyphSlotRec_ = type { %struct.FT_GlyphSlotRec_, i8, i8, i64, i64, i32, i32 }
%struct.FT_Incremental_InterfaceRec_ = type { ptr, ptr }
%struct.FT_Incremental_FuncsRec_ = type { ptr, ptr, ptr }
%struct.PS_Decoder_ = type { %struct.PS_Builder_, [49 x i64], ptr, [17 x %struct.PS_Decoder_Zone_], ptr, i32, i32, [7 x %struct.FT_Vector_], ptr, ptr, ptr, ptr, i8, i32, i32, i32, i32, i32, ptr, ptr, ptr, i32, i32, i8, ptr, ptr, ptr, i32, ptr, ptr, %struct.FT_Matrix_, %struct.FT_Vector_, ptr, ptr, i32 }
%struct.PS_Builder_ = type { ptr, ptr, ptr, ptr, ptr, ptr, ptr, ptr, ptr, ptr, ptr, i8, i8, i8, i8, i8, %struct.PS_Builder_FuncsRec_ }
%struct.PS_Builder_FuncsRec_ = type { ptr, ptr }
%struct.PS_Decoder_Zone_ = type { ptr, ptr, ptr }
%struct.CFF_SubFontRec_ = type { %struct.CFF_FontRecDictRec_, %struct.CFF_PrivateRec_, %struct.CFF_BlendRec_, i32, ptr, ptr, ptr, i32, i32, %struct.CFF_IndexRec_, ptr, i32 }
%struct.CFF_FontRecDictRec_ = type { i32, i32, i32, i32, i32, i32, i8, i64, i64, i64, i32, i32, %struct.FT_Matrix_, i8, i64, %struct.FT_Vector_, i64, %struct.FT_BBox_, i64, i64, i64, i64, i64, i64, i64, i32, i32, i32, i64, i64, i64, i64, i64, i64, i64, i64, i32, i16, i16, i64, i32 }
%struct.CFF_PrivateRec_ = type { i8, i8, i8, i8, [14 x i64], [10 x i64], [14 x i64], [10 x i64], i64, i64, i64, i64, i64, i8, i8, [13 x i64], [13 x i64], i8, i64, i32, i32, i64, i64, i64, i64, i64, i32, ptr }
%struct.CFF_BlendRec_ = type { i8, i8, ptr, i32, i32, ptr, i32, ptr }
%struct.CFF_IndexRec_ = type { ptr, i64, i32, i32, i8, i64, i64, ptr, ptr }
%struct.FT_Incremental_MetricsRec_ = type { i64, i64, i64, i64 }

; Function Attrs: nounwind uwtable
define internal i32 @T1_Parse_Glyph_And_Get_Char_String(ptr noundef %0, i32 noundef %1, ptr noundef %2, ptr noundef %3) #0 {
  %5 = alloca ptr, align 8
  %6 = alloca i32, align 4
  %7 = alloca ptr, align 8
  %8 = alloca ptr, align 8
  %9 = alloca ptr, align 8
  %10 = alloca ptr, align 8
  %11 = alloca i32, align 4
  %12 = alloca ptr, align 8
  %13 = alloca ptr, align 8
  %14 = alloca %struct.PS_Decoder_, align 8
  %15 = alloca ptr, align 8
  %16 = alloca %struct.CFF_SubFontRec_, align 8
  %17 = alloca %struct.FT_Incremental_MetricsRec_, align 8
  store ptr %0, ptr %5, align 8
  store i32 %1, ptr %6, align 4
  store ptr %2, ptr %7, align 8
  store ptr %3, ptr %8, align 8
  %18 = load ptr, ptr %5, align 8
  %19 = getelementptr inbounds %struct.T1_DecoderRec_, ptr %18, i32 0, i32 0
  %20 = getelementptr inbounds %struct.T1_BuilderRec_, ptr %19, i32 0, i32 1
  %21 = load ptr, ptr %20, align 8
  store ptr %21, ptr %9, align 8
  %22 = load ptr, ptr %9, align 8
  %23 = getelementptr inbounds %struct.T1_FaceRec_, ptr %22, i32 0, i32 1
  store ptr %23, ptr %10, align 8
  store i32 0, ptr %11, align 4
  %24 = load ptr, ptr %9, align 8
  %25 = getelementptr inbounds %struct.T1_FaceRec_, ptr %24, i32 0, i32 3
  %26 = load ptr, ptr %25, align 8
  store ptr %26, ptr %12, align 8
  %27 = load ptr, ptr %12, align 8
  %28 = getelementptr inbounds %struct.PSAux_ServiceRec_, ptr %27, i32 0, i32 3
  %29 = load ptr, ptr %28, align 8
  store ptr %29, ptr %13, align 8
  %30 = load ptr, ptr %9, align 8
  %31 = getelementptr inbounds %struct.T1_FaceRec_, ptr %30, i32 0, i32 0
  %32 = getelementptr inbounds %struct.FT_FaceRec_, ptr %31, i32 0, i32 30
  %33 = load ptr, ptr %32, align 8
  %34 = getelementptr inbounds %struct.FT_Face_InternalRec_, ptr %33, i32 0, i32 4
  %35 = load ptr, ptr %34, align 8
  store ptr %35, ptr %15, align 8
  %36 = load ptr, ptr %5, align 8
  %37 = getelementptr inbounds %struct.T1_DecoderRec_, ptr %36, i32 0, i32 13
  %38 = load ptr, ptr %10, align 8
  %39 = getelementptr inbounds %struct.T1_FontRec_, ptr %38, i32 0, i32 19
  call void @llvm.memcpy.p0.p0.i64(ptr align 8 %37, ptr align 8 %39, i64 32, i1 false)
  %40 = load ptr, ptr %5, align 8
  %41 = getelementptr inbounds %struct.T1_DecoderRec_, ptr %40, i32 0, i32 14
  %42 = load ptr, ptr %10, align 8
  %43 = getelementptr inbounds %struct.T1_FontRec_, ptr %42, i32 0, i32 20
  call void @llvm.memcpy.p0.p0.i64(ptr align 8 %41, ptr align 8 %43, i64 16, i1 false)
  %44 = load ptr, ptr %15, align 8
  %45 = icmp ne ptr %44, null
  br i1 %45, label %46, label %58

46:                                               ; preds = %4
  %47 = load ptr, ptr %15, align 8
  %48 = getelementptr inbounds %struct.FT_Incremental_InterfaceRec_, ptr %47, i32 0, i32 0
  %49 = load ptr, ptr %48, align 8
  %50 = getelementptr inbounds %struct.FT_Incremental_FuncsRec_, ptr %49, i32 0, i32 0
  %51 = load ptr, ptr %50, align 8
  %52 = load ptr, ptr %15, align 8
  %53 = getelementptr inbounds %struct.FT_Incremental_InterfaceRec_, ptr %52, i32 0, i32 1
  %54 = load ptr, ptr %53, align 8
  %55 = load i32, ptr %6, align 4
  %56 = load ptr, ptr %7, align 8
  %57 = call i32 %51(ptr noundef %54, i32 noundef %55, ptr noundef %56)
  store i32 %57, ptr %11, align 4
  br label %77

58:                                               ; preds = %4
  %59 = load ptr, ptr %10, align 8
  %60 = getelementptr inbounds %struct.T1_FontRec_, ptr %59, i32 0, i32 15
  %61 = load ptr, ptr %60, align 8
  %62 = load i32, ptr %6, align 4
  %63 = zext i32 %62 to i64
  %64 = getelementptr inbounds ptr, ptr %61, i64 %63
  %65 = load ptr, ptr %64, align 8
  %66 = load ptr, ptr %7, align 8
  %67 = getelementptr inbounds %struct.FT_Data_, ptr %66, i32 0, i32 0
  store ptr %65, ptr %67, align 8
  %68 = load ptr, ptr %10, align 8
  %69 = getelementptr inbounds %struct.T1_FontRec_, ptr %68, i32 0, i32 16
  %70 = load ptr, ptr %69, align 8
  %71 = load i32, ptr %6, align 4
  %72 = zext i32 %71 to i64
  %73 = getelementptr inbounds i32, ptr %70, i64 %72
  %74 = load i32, ptr %73, align 4
  %75 = load ptr, ptr %7, align 8
  %76 = getelementptr inbounds %struct.FT_Data_, ptr %75, i32 0, i32 1
  store i32 %74, ptr %76, align 8
  br label %77

77:                                               ; preds = %58, %46
  %78 = load i32, ptr %11, align 4
  %79 = icmp ne i32 %78, 0
  br i1 %79, label %145, label %80

80:                                               ; preds = %77
  %81 = load ptr, ptr %5, align 8
  %82 = getelementptr inbounds %struct.T1_DecoderRec_, ptr %81, i32 0, i32 0
  %83 = getelementptr inbounds %struct.T1_BuilderRec_, ptr %82, i32 0, i32 14
  %84 = load i8, ptr %83, align 2
  %85 = icmp ne i8 %84, 0
  br i1 %85, label %86, label %98

86:                                               ; preds = %80
  %87 = load ptr, ptr %13, align 8
  %88 = getelementptr inbounds %struct.T1_Decoder_FuncsRec_, ptr %87, i32 0, i32 2
  %89 = load ptr, ptr %88, align 8
  %90 = load ptr, ptr %5, align 8
  %91 = load ptr, ptr %7, align 8
  %92 = getelementptr inbounds %struct.FT_Data_, ptr %91, i32 0, i32 0
  %93 = load ptr, ptr %92, align 8
  %94 = load ptr, ptr %7, align 8
  %95 = getelementptr inbounds %struct.FT_Data_, ptr %94, i32 0, i32 1
  %96 = load i32, ptr %95, align 8
  %97 = call i32 %89(ptr noundef %90, ptr noundef %93, i32 noundef %96)
  store i32 %97, ptr %11, align 4
  br label %144

98:                                               ; preds = %80
  %99 = load ptr, ptr %12, align 8
  %100 = getelementptr inbounds %struct.PSAux_ServiceRec_, ptr %99, i32 0, i32 6
  %101 = load ptr, ptr %100, align 8
  %102 = load ptr, ptr %5, align 8
  call void %101(ptr noundef %14, ptr noundef %102, i8 noundef zeroext 1)
  %103 = load ptr, ptr %12, align 8
  %104 = getelementptr inbounds %struct.PSAux_ServiceRec_, ptr %103, i32 0, i32 7
  %105 = load ptr, ptr %104, align 8
  %106 = load ptr, ptr %9, align 8
  %107 = load ptr, ptr %9, align 8
  %108 = getelementptr inbounds %struct.T1_FaceRec_, ptr %107, i32 0, i32 1
  %109 = getelementptr inbounds %struct.T1_FontRec_, ptr %108, i32 0, i32 2
  call void %105(ptr noundef %106, ptr noundef %109, ptr noundef %16)
  %110 = getelementptr inbounds %struct.PS_Decoder_, ptr %14, i32 0, i32 9
  store ptr %16, ptr %110, align 8
  %111 = load ptr, ptr %13, align 8
  %112 = getelementptr inbounds %struct.T1_Decoder_FuncsRec_, ptr %111, i32 0, i32 3
  %113 = load ptr, ptr %112, align 8
  %114 = load ptr, ptr %7, align 8
  %115 = getelementptr inbounds %struct.FT_Data_, ptr %114, i32 0, i32 0
  %116 = load ptr, ptr %115, align 8
  %117 = load ptr, ptr %7, align 8
  %118 = getelementptr inbounds %struct.FT_Data_, ptr %117, i32 0, i32 1
  %119 = load i32, ptr %118, align 8
  %120 = zext i32 %119 to i64
  %121 = call i32 %113(ptr noundef %14, ptr noundef %116, i64 noundef %120)
  store i32 %121, ptr %11, align 4
  %122 = load i32, ptr %11, align 4
  %123 = and i32 %122, 255
  %124 = icmp eq i32 %123, 164
  br i1 %124, label %125, label %143

125:                                              ; preds = %98
  %126 = load ptr, ptr %5, align 8
  %127 = getelementptr inbounds %struct.T1_DecoderRec_, ptr %126, i32 0, i32 0
  %128 = getelementptr inbounds %struct.T1_BuilderRec_, ptr %127, i32 0, i32 2
  %129 = load ptr, ptr %128, align 8
  %130 = getelementptr inbounds %struct.T1_GlyphSlotRec_, ptr %129, i32 0, i32 1
  store i8 0, ptr %130, align 8
  %131 = load ptr, ptr %8, align 8
  store i8 1, ptr %131, align 1
  %132 = load ptr, ptr %13, align 8
  %133 = getelementptr inbounds %struct.T1_Decoder_FuncsRec_, ptr %132, i32 0, i32 3
  %134 = load ptr, ptr %133, align 8
  %135 = load ptr, ptr %7, align 8
  %136 = getelementptr inbounds %struct.FT_Data_, ptr %135, i32 0, i32 0
  %137 = load ptr, ptr %136, align 8
  %138 = load ptr, ptr %7, align 8
  %139 = getelementptr inbounds %struct.FT_Data_, ptr %138, i32 0, i32 1
  %140 = load i32, ptr %139, align 8
  %141 = zext i32 %140 to i64
  %142 = call i32 %134(ptr noundef %14, ptr noundef %137, i64 noundef %141)
  store i32 %142, ptr %11, align 4
  br label %143

143:                                              ; preds = %125, %98
  br label %144

144:                                              ; preds = %143, %86
  br label %145

145:                                              ; preds = %144, %77
  %146 = load i32, ptr %11, align 4
  %147 = icmp ne i32 %146, 0
  br i1 %147, label %215, label %148

148:                                              ; preds = %145
  %149 = load ptr, ptr %15, align 8
  %150 = icmp ne ptr %149, null
  br i1 %150, label %151, label %215

151:                                              ; preds = %148
  %152 = load ptr, ptr %15, align 8
  %153 = getelementptr inbounds %struct.FT_Incremental_InterfaceRec_, ptr %152, i32 0, i32 0
  %154 = load ptr, ptr %153, align 8
  %155 = getelementptr inbounds %struct.FT_Incremental_FuncsRec_, ptr %154, i32 0, i32 2
  %156 = load ptr, ptr %155, align 8
  %157 = icmp ne ptr %156, null
  br i1 %157, label %158, label %215

158:                                              ; preds = %151
  %159 = load ptr, ptr %5, align 8
  %160 = getelementptr inbounds %struct.T1_DecoderRec_, ptr %159, i32 0, i32 0
  %161 = getelementptr inbounds %struct.T1_BuilderRec_, ptr %160, i32 0, i32 8
  %162 = getelementptr inbounds %struct.FT_Vector_, ptr %161, i32 0, i32 0
  %163 = load i64, ptr %162, align 8
  %164 = call i64 @FT_RoundFix(i64 noundef %163)
  %165 = ashr i64 %164, 16
  %166 = getelementptr inbounds %struct.FT_Incremental_MetricsRec_, ptr %17, i32 0, i32 0
  store i64 %165, ptr %166, align 8
  %167 = getelementptr inbounds %struct.FT_Incremental_MetricsRec_, ptr %17, i32 0, i32 1
  store i64 0, ptr %167, align 8
  %168 = load ptr, ptr %5, align 8
  %169 = getelementptr inbounds %struct.T1_DecoderRec_, ptr %168, i32 0, i32 0
  %170 = getelementptr inbounds %struct.T1_BuilderRec_, ptr %169, i32 0, i32 9
  %171 = getelementptr inbounds %struct.FT_Vector_, ptr %170, i32 0, i32 0
  %172 = load i64, ptr %171, align 8
  %173 = call i64 @FT_RoundFix(i64 noundef %172)
  %174 = ashr i64 %173, 16
  %175 = getelementptr inbounds %struct.FT_Incremental_MetricsRec_, ptr %17, i32 0, i32 2
  store i64 %174, ptr %175, align 8
  %176 = load ptr, ptr %5, align 8
  %177 = getelementptr inbounds %struct.T1_DecoderRec_, ptr %176, i32 0, i32 0
  %178 = getelementptr inbounds %struct.T1_BuilderRec_, ptr %177, i32 0, i32 9
  %179 = getelementptr inbounds %struct.FT_Vector_, ptr %178, i32 0, i32 1
  %180 = load i64, ptr %179, align 8
  %181 = call i64 @FT_RoundFix(i64 noundef %180)
  %182 = ashr i64 %181, 16
  %183 = getelementptr inbounds %struct.FT_Incremental_MetricsRec_, ptr %17, i32 0, i32 3
  store i64 %182, ptr %183, align 8
  %184 = load ptr, ptr %15, align 8
  %185 = getelementptr inbounds %struct.FT_Incremental_InterfaceRec_, ptr %184, i32 0, i32 0
  %186 = load ptr, ptr %185, align 8
  %187 = getelementptr inbounds %struct.FT_Incremental_FuncsRec_, ptr %186, i32 0, i32 2
  %188 = load ptr, ptr %187, align 8
  %189 = load ptr, ptr %15, align 8
  %190 = getelementptr inbounds %struct.FT_Incremental_InterfaceRec_, ptr %189, i32 0, i32 1
  %191 = load ptr, ptr %190, align 8
  %192 = load i32, ptr %6, align 4
  %193 = call i32 %188(ptr noundef %191, i32 noundef %192, i8 noundef zeroext 0, ptr noundef %17)
  store i32 %193, ptr %11, align 4
  %194 = getelementptr inbounds %struct.FT_Incremental_MetricsRec_, ptr %17, i32 0, i32 0
  %195 = load i64, ptr %194, align 8
  %196 = mul nsw i64 %195, 65536
  %197 = load ptr, ptr %5, align 8
  %198 = getelementptr inbounds %struct.T1_DecoderRec_, ptr %197, i32 0, i32 0
  %199 = getelementptr inbounds %struct.T1_BuilderRec_, ptr %198, i32 0, i32 8
  %200 = getelementptr inbounds %struct.FT_Vector_, ptr %199, i32 0, i32 0
  store i64 %196, ptr %200, align 8
  %201 = getelementptr inbounds %struct.FT_Incremental_MetricsRec_, ptr %17, i32 0, i32 2
  %202 = load i64, ptr %201, align 8
  %203 = mul nsw i64 %202, 65536
  %204 = load ptr, ptr %5, align 8
  %205 = getelementptr inbounds %struct.T1_DecoderRec_, ptr %204, i32 0, i32 0
  %206 = getelementptr inbounds %struct.T1_BuilderRec_, ptr %205, i32 0, i32 9
  %207 = getelementptr inbounds %struct.FT_Vector_, ptr %206, i32 0, i32 0
  store i64 %203, ptr %207, align 8
  %208 = getelementptr inbounds %struct.FT_Incremental_MetricsRec_, ptr %17, i32 0, i32 3
  %209 = load i64, ptr %208, align 8
  %210 = mul nsw i64 %209, 65536
  %211 = load ptr, ptr %5, align 8
  %212 = getelementptr inbounds %struct.T1_DecoderRec_, ptr %211, i32 0, i32 0
  %213 = getelementptr inbounds %struct.T1_BuilderRec_, ptr %212, i32 0, i32 9
  %214 = getelementptr inbounds %struct.FT_Vector_, ptr %213, i32 0, i32 1
  store i64 %210, ptr %214, align 8
  br label %215

215:                                              ; preds = %158, %151, %148, %145
  %216 = load i32, ptr %11, align 4
  ret i32 %216
}