; Function Attrs: nounwind uwtable
define internal fastcc i32 @T1_Parse_Glyph_And_Get_Char_String(ptr noundef %0, i32 noundef %1, ptr noundef %2, ptr nocapture noundef writeonly %3) unnamed_addr #2 {
  %5 = alloca %struct.PS_Decoder_, align 8
  %6 = alloca %struct.CFF_SubFontRec_, align 8
  %7 = alloca %struct.FT_Incremental_MetricsRec_, align 8
  %8 = getelementptr inbounds i8, ptr %0, i64 8
  %9 = load ptr, ptr %8, align 8
  %10 = getelementptr inbounds i8, ptr %9, i64 784
  %11 = load ptr, ptr %10, align 8
  %12 = getelementptr inbounds i8, ptr %11, i64 24
  %13 = load ptr, ptr %12, align 8
  %14 = getelementptr inbounds i8, ptr %9, i64 240
  %15 = load ptr, ptr %14, align 8
  %16 = getelementptr inbounds i8, ptr %15, i64 104
  %17 = load ptr, ptr %16, align 8
  %18 = getelementptr inbounds i8, ptr %0, i64 2744
  %19 = getelementptr inbounds i8, ptr %9, i64 680
  tail call void @llvm.memcpy.p0.p0.i64(ptr noundef nonnull align 8 dereferenceable(32) %18, ptr noundef nonnull align 8 dereferenceable(32) %19, i64 32, i1 false)
  %20 = getelementptr inbounds i8, ptr %0, i64 2776
  %21 = getelementptr inbounds i8, ptr %9, i64 712
  tail call void @llvm.memcpy.p0.p0.i64(ptr noundef nonnull align 8 dereferenceable(16) %20, ptr noundef nonnull align 8 dereferenceable(16) %21, i64 16, i1 false)
  %22 = icmp ne ptr %17, null
  br i1 %22, label %33, label %.thread

.thread:                                          ; preds = %4
  %23 = getelementptr inbounds i8, ptr %9, i64 656
  %24 = load ptr, ptr %23, align 8
  %25 = zext i32 %1 to i64
  %26 = getelementptr inbounds ptr, ptr %24, i64 %25
  %27 = load ptr, ptr %26, align 8
  store ptr %27, ptr %2, align 8
  %28 = getelementptr inbounds i8, ptr %9, i64 664
  %29 = load ptr, ptr %28, align 8
  %30 = getelementptr inbounds i32, ptr %29, i64 %25
  %31 = load i32, ptr %30, align 4
  %32 = getelementptr inbounds i8, ptr %2, i64 8
  store i32 %31, ptr %32, align 8
  br label %39

33:                                               ; preds = %4
  %34 = load ptr, ptr %17, align 8
  %35 = load ptr, ptr %34, align 8
  %36 = getelementptr inbounds i8, ptr %17, i64 8
  %37 = load ptr, ptr %36, align 8
  %38 = tail call i32 %35(ptr noundef %37, i32 noundef %1, ptr noundef %2) #16
  %.not = icmp eq i32 %38, 0
  br i1 %.not, label %39, label %.thread59

39:                                               ; preds = %.thread, %33
  %40 = getelementptr inbounds i8, ptr %0, i64 134
  %41 = load i8, ptr %40, align 2
  %.not55 = icmp eq i8 %41, 0
  br i1 %.not55, label %49, label %42

42:                                               ; preds = %39
  %43 = getelementptr inbounds i8, ptr %13, i64 16
  %44 = load ptr, ptr %43, align 8
  %45 = load ptr, ptr %2, align 8
  %46 = getelementptr inbounds i8, ptr %2, i64 8
  %47 = load i32, ptr %46, align 8
  %48 = tail call i32 %44(ptr noundef nonnull %0, ptr noundef %45, i32 noundef %47) #16
  br label %74

49:                                               ; preds = %39
  %50 = getelementptr inbounds i8, ptr %11, i64 48
  %51 = load ptr, ptr %50, align 8
  call void %51(ptr noundef nonnull %5, ptr noundef nonnull %0, i8 noundef zeroext 1) #16
  %52 = getelementptr inbounds i8, ptr %11, i64 56
  %53 = load ptr, ptr %52, align 8
  %54 = getelementptr inbounds i8, ptr %9, i64 312
  call void %53(ptr noundef nonnull %9, ptr noundef nonnull %54, ptr noundef nonnull %6) #16
  %55 = getelementptr inbounds i8, ptr %5, i64 1056
  store ptr %6, ptr %55, align 8
  %56 = getelementptr inbounds i8, ptr %13, i64 24
  %57 = load ptr, ptr %56, align 8
  %58 = load ptr, ptr %2, align 8
  %59 = getelementptr inbounds i8, ptr %2, i64 8
  %60 = load i32, ptr %59, align 8
  %61 = zext i32 %60 to i64
  %62 = call i32 %57(ptr noundef nonnull %5, ptr noundef %58, i64 noundef %61) #16
  %63 = and i32 %62, 255
  %64 = icmp eq i32 %63, 164
  br i1 %64, label %65, label %74

65:                                               ; preds = %49
  %66 = getelementptr inbounds i8, ptr %0, i64 16
  %67 = load ptr, ptr %66, align 8
  %68 = getelementptr inbounds i8, ptr %67, i64 304
  store i8 0, ptr %68, align 8
  store i8 1, ptr %3, align 1
  %69 = load ptr, ptr %56, align 8
  %70 = load ptr, ptr %2, align 8
  %71 = load i32, ptr %59, align 8
  %72 = zext i32 %71 to i64
  %73 = call i32 %69(ptr noundef nonnull %5, ptr noundef %70, i64 noundef %72) #16
  br label %74

74:                                               ; preds = %42, %65, %49
  %.1 = phi i32 [ %48, %42 ], [ %73, %65 ], [ %62, %49 ]
  %75 = icmp eq i32 %.1, 0
  %or.cond = and i1 %22, %75
  br i1 %or.cond, label %76, label %.thread59

76:                                               ; preds = %74
  %77 = load ptr, ptr %17, align 8
  %78 = getelementptr inbounds i8, ptr %77, i64 16
  %79 = load ptr, ptr %78, align 8
  %.not56 = icmp eq ptr %79, null
  br i1 %.not56, label %.thread59, label %80

80:                                               ; preds = %76
  %81 = getelementptr inbounds i8, ptr %0, i64 64
  %82 = load i64, ptr %81, align 8
  %83 = call i64 @FT_RoundFix(i64 noundef %82) #16
  %84 = ashr i64 %83, 16
  store i64 %84, ptr %7, align 8
  %85 = getelementptr inbounds i8, ptr %7, i64 8
  store i64 0, ptr %85, align 8
  %86 = getelementptr inbounds i8, ptr %0, i64 80
  %87 = load i64, ptr %86, align 8
  %88 = call i64 @FT_RoundFix(i64 noundef %87) #16
  %89 = ashr i64 %88, 16
  %90 = getelementptr inbounds i8, ptr %7, i64 16
  store i64 %89, ptr %90, align 8
  %91 = getelementptr inbounds i8, ptr %0, i64 88
  %92 = load i64, ptr %91, align 8
  %93 = call i64 @FT_RoundFix(i64 noundef %92) #16
  %94 = ashr i64 %93, 16
  %95 = getelementptr inbounds i8, ptr %7, i64 24
  store i64 %94, ptr %95, align 8
  %96 = load ptr, ptr %17, align 8
  %97 = getelementptr inbounds i8, ptr %96, i64 16
  %98 = load ptr, ptr %97, align 8
  %99 = getelementptr inbounds i8, ptr %17, i64 8
  %100 = load ptr, ptr %99, align 8
  %101 = call i32 %98(ptr noundef %100, i32 noundef %1, i8 noundef zeroext 0, ptr noundef nonnull %7) #16
  %102 = load i64, ptr %7, align 8
  %103 = shl nsw i64 %102, 16
  store i64 %103, ptr %81, align 8
  %104 = load <2 x i64>, ptr %90, align 8
  %105 = shl nsw <2 x i64> %104, <i64 16, i64 16>
  store <2 x i64> %105, ptr %86, align 8
  br label %.thread59

.thread59:                                        ; preds = %33, %80, %76, %74
  %.2 = phi i32 [ %101, %80 ], [ 0, %76 ], [ %.1, %74 ], [ %38, %33 ]
  ret i32 %.2
}